target datalayout = "e-m:e-p270:32:32-p271:32:32-p272:64:64-i64:64-i128:128-f80:128-n8:16:32:64-S128"
target triple = "x86_64-pc-linux-gnu"

%"class.glslang::TBuiltInParseables" = type { ptr, %"class.std::__cxx11::basic_string", [14 x %"class.std::__cxx11::basic_string"] }
%"class.std::__cxx11::basic_string" = type { %"struct.std::__cxx11::basic_string<char, std::char_traits<char>, glslang::pool_allocator<char>>::_Alloc_hider", i64, %union.anon }
%"struct.std::__cxx11::basic_string<char, std::char_traits<char>, glslang::pool_allocator<char>>::_Alloc_hider" = type { %"class.glslang::pool_allocator", ptr }
%"class.glslang::pool_allocator" = type { ptr }
%union.anon = type { i64, [8 x i8] }
%"class.glslang::TBuiltIns" = type <{ %"class.glslang::TBuiltInParseables", [5 x ptr], [24 x ptr], [9 x i32], [4 x i8] }>

@.str.64 = private unnamed_addr constant [1 x i8] zeroinitializer, align 1
@.str.65 = private unnamed_addr constant [2 x i8] c"i\00", align 1
@.str.66 = private unnamed_addr constant [2 x i8] c"u\00", align 1
@.str.67 = private unnamed_addr constant [4 x i8] c"f16\00", align 1
@.str.68 = private unnamed_addr constant [3 x i8] c"i8\00", align 1
@.str.69 = private unnamed_addr constant [3 x i8] c"u8\00", align 1
@.str.70 = private unnamed_addr constant [4 x i8] c"i16\00", align 1
@.str.71 = private unnamed_addr constant [4 x i8] c"u16\00", align 1
@.str.72 = private unnamed_addr constant [4 x i8] c"i64\00", align 1
@.str.73 = private unnamed_addr constant [4 x i8] c"u64\00", align 1
@.str.74 = private unnamed_addr constant [2 x i8] c"2\00", align 1
@.str.75 = private unnamed_addr constant [2 x i8] c"3\00", align 1
@.str.76 = private unnamed_addr constant [2 x i8] c"4\00", align 1

; Function Attrs: mustprogress nounwind uwtable
define linkonce_odr void @_ZNSt11char_traitsIcE6assignERcRKc(ptr noundef nonnull align 1 dereferenceable(1) %0, ptr noundef nonnull align 1 dereferenceable(1) %1) #2 comdat align 2 {
  %3 = alloca ptr, align 8
  %4 = alloca ptr, align 8
  store ptr %0, ptr %3, align 8
  store ptr %1, ptr %4, align 8
  %5 = load ptr, ptr %4, align 8
  %6 = load i8, ptr %5, align 1
  %7 = load ptr, ptr %3, align 8
  store i8 %6, ptr %7, align 1
  ret void
}

; Function Attrs: mustprogress nounwind uwtable
define linkonce_odr noundef ptr @_ZNKSt7__cxx1112basic_stringIcSt11char_traitsIcEN7glslang14pool_allocatorIcEEE7_M_dataEv(ptr noundef nonnull align 8 dereferenceable(40) %0) #2 comdat align 2 {
  %2 = alloca ptr, align 8
  store ptr %0, ptr %2, align 8
  %3 = load ptr, ptr %2, align 8
  %4 = getelementptr inbounds %"class.std::__cxx11::basic_string", ptr %3, i32 0, i32 0
  %5 = getelementptr inbounds %"struct.std::__cxx11::basic_string<char, std::char_traits<char>, glslang::pool_allocator<char>>::_Alloc_hider", ptr %4, i32 0, i32 1
  %6 = load ptr, ptr %5, align 8
  ret ptr %6
}

; Function Attrs: mustprogress nounwind uwtable
define linkonce_odr void @_ZNSt7__cxx1112basic_stringIcSt11char_traitsIcEN7glslang14pool_allocatorIcEEE9_M_lengthEm(ptr noundef nonnull align 8 dereferenceable(40) %0, i64 noundef %1) #2 comdat align 2 {
  %3 = alloca ptr, align 8
  %4 = alloca i64, align 8
  store ptr %0, ptr %3, align 8
  store i64 %1, ptr %4, align 8
  %5 = load ptr, ptr %3, align 8
  %6 = load i64, ptr %4, align 8
  %7 = getelementptr inbounds %"class.std::__cxx11::basic_string", ptr %5, i32 0, i32 1
  store i64 %6, ptr %7, align 8
  ret void
}

; Function Attrs: mustprogress nounwind uwtable
define linkonce_odr void @_ZN7glslang14pool_allocatorIcEC2ERKS1_(ptr noundef nonnull align 8 dereferenceable(8) %0, ptr noundef nonnull align 8 dereferenceable(8) %1) unnamed_addr #2 comdat align 2 {
  %3 = alloca ptr, align 8
  %4 = alloca ptr, align 8
  store ptr %0, ptr %3, align 8
  store ptr %1, ptr %4, align 8
  %5 = load ptr, ptr %3, align 8
  %6 = getelementptr inbounds %"class.glslang::pool_allocator", ptr %5, i32 0, i32 0
  %7 = load ptr, ptr %4, align 8
  %8 = getelementptr inbounds %"class.glslang::pool_allocator", ptr %7, i32 0, i32 0
  %9 = load ptr, ptr %8, align 8
  store ptr %9, ptr %6, align 8
  ret void
}

; Function Attrs: mustprogress nounwind uwtable
define linkonce_odr noundef ptr @_ZNSt19__ptr_traits_ptr_toIPccLb0EE10pointer_toERc(ptr noundef nonnull align 1 dereferenceable(1) %0) #2 comdat align 2 {
  %2 = alloca ptr, align 8
  store ptr %0, ptr %2, align 8
  %3 = load ptr, ptr %2, align 8
  ret ptr %3
}

; Function Attrs: mustprogress nounwind uwtable
define linkonce_odr void @_ZNSt7__cxx1112basic_stringIcSt11char_traitsIcEN7glslang14pool_allocatorIcEEE13_M_set_lengthEm(ptr noundef nonnull align 8 dereferenceable(40) %0, i64 noundef %1) #2 comdat align 2 {
  %3 = alloca ptr, align 8
  %4 = alloca i64, align 8
  %5 = alloca i8, align 1
  store ptr %0, ptr %3, align 8
  store i64 %1, ptr %4, align 8
  %6 = load ptr, ptr %3, align 8
  %7 = load i64, ptr %4, align 8
  call void @_ZNSt7__cxx1112basic_stringIcSt11char_traitsIcEN7glslang14pool_allocatorIcEEE9_M_lengthEm(ptr noundef nonnull align 8 dereferenceable(40) %6, i64 noundef %7)
  %8 = call noundef ptr @_ZNKSt7__cxx1112basic_stringIcSt11char_traitsIcEN7glslang14pool_allocatorIcEEE7_M_dataEv(ptr noundef nonnull align 8 dereferenceable(40) %6)
  %9 = load i64, ptr %4, align 8
  %10 = getelementptr inbounds i8, ptr %8, i64 %9
  store i8 0, ptr %5, align 1
  call void @_ZNSt11char_traitsIcE6assignERcRKc(ptr noundef nonnull align 1 dereferenceable(1) %10, ptr noundef nonnull align 1 dereferenceable(1) %5) #10
  ret void
}

; Function Attrs: mustprogress nounwind uwtable
define linkonce_odr void @_ZNSt7__cxx1112basic_stringIcSt11char_traitsIcEN7glslang14pool_allocatorIcEEE12_Alloc_hiderC2EPcOS5_(ptr noundef nonnull align 8 dereferenceable(16) %0, ptr noundef %1, ptr noundef nonnull align 8 dereferenceable(8) %2) unnamed_addr #2 comdat align 2 {
  %4 = alloca ptr, align 8
  %5 = alloca ptr, align 8
  %6 = alloca ptr, align 8
  store ptr %0, ptr %4, align 8
  store ptr %1, ptr %5, align 8
  store ptr %2, ptr %6, align 8
  %7 = load ptr, ptr %4, align 8
  %8 = load ptr, ptr %6, align 8
  call void @_ZN7glslang14pool_allocatorIcEC2ERKS1_(ptr noundef nonnull align 8 dereferenceable(8) %7, ptr noundef nonnull align 8 dereferenceable(8) %8)
  %9 = getelementptr inbounds %"struct.std::__cxx11::basic_string<char, std::char_traits<char>, glslang::pool_allocator<char>>::_Alloc_hider", ptr %7, i32 0, i32 1
  %10 = load ptr, ptr %5, align 8
  store ptr %10, ptr %9, align 8
  ret void
}

; Function Attrs: mustprogress nounwind uwtable
define linkonce_odr void @_ZN7glslang14pool_allocatorIcEC2Ev(ptr noundef nonnull align 8 dereferenceable(8) %0) unnamed_addr #2 comdat align 2 {
  %2 = alloca ptr, align 8
  store ptr %0, ptr %2, align 8
  %3 = load ptr, ptr %2, align 8
  %4 = getelementptr inbounds %"class.glslang::pool_allocator", ptr %3, i32 0, i32 0
  %5 = call noundef nonnull align 8 dereferenceable(96) ptr @_ZN7glslang22GetThreadPoolAllocatorEv()
  store ptr %5, ptr %4, align 8
  ret void
}

; Function Attrs: mustprogress nounwind uwtable
define linkonce_odr noundef ptr @_ZNSt7__cxx1112basic_stringIcSt11char_traitsIcEN7glslang14pool_allocatorIcEEE13_M_local_dataEv(ptr noundef nonnull align 8 dereferenceable(40) %0) #2 comdat align 2 {
  %2 = alloca ptr, align 8
  store ptr %0, ptr %2, align 8
  %3 = load ptr, ptr %2, align 8
  %4 = getelementptr inbounds %"class.std::__cxx11::basic_string", ptr %3, i32 0, i32 2
  %5 = getelementptr inbounds [16 x i8], ptr %4, i64 0, i64 0
  %6 = call noundef ptr @_ZNSt19__ptr_traits_ptr_toIPccLb0EE10pointer_toERc(ptr noundef nonnull align 1 dereferenceable(1) %5) #10
  ret ptr %6
}

; Function Attrs: mustprogress nounwind uwtable
define linkonce_odr void @_ZNSt7__cxx1112basic_stringIcSt11char_traitsIcEN7glslang14pool_allocatorIcEEEC2Ev(ptr noundef nonnull align 8 dereferenceable(40) %0) unnamed_addr #2 comdat align 2 {
  %2 = alloca ptr, align 8
  %3 = alloca ptr, align 8
  %4 = alloca %"class.glslang::pool_allocator", align 8
  store ptr %0, ptr %3, align 8
  %5 = load ptr, ptr %3, align 8
  %6 = getelementptr inbounds %"class.std::__cxx11::basic_string", ptr %5, i32 0, i32 0
  %7 = call noundef ptr @_ZNSt7__cxx1112basic_stringIcSt11char_traitsIcEN7glslang14pool_allocatorIcEEE13_M_local_dataEv(ptr noundef nonnull align 8 dereferenceable(40) %5)
  call void @_ZN7glslang14pool_allocatorIcEC2Ev(ptr noundef nonnull align 8 dereferenceable(8) %4)
  call void @_ZNSt7__cxx1112basic_stringIcSt11char_traitsIcEN7glslang14pool_allocatorIcEEE12_Alloc_hiderC2EPcOS5_(ptr noundef nonnull align 8 dereferenceable(16) %6, ptr noundef %7, ptr noundef nonnull align 8 dereferenceable(8) %4)
  store ptr %5, ptr %2, align 8
  %8 = load ptr, ptr %2, align 8
  %9 = call noundef ptr @_ZNSt7__cxx1112basic_stringIcSt11char_traitsIcEN7glslang14pool_allocatorIcEEE13_M_local_dataEv(ptr noundef nonnull align 8 dereferenceable(40) %8)
  call void @_ZNSt7__cxx1112basic_stringIcSt11char_traitsIcEN7glslang14pool_allocatorIcEEE13_M_set_lengthEm(ptr noundef nonnull align 8 dereferenceable(40) %5, i64 noundef 0)
  ret void
}

; Function Attrs: mustprogress nounwind uwtable
define void @_ZN7glslang18TBuiltInParseablesC2Ev(ptr noundef nonnull align 8 dereferenceable(608) %0) unnamed_addr #2 align 2 {
  %2 = alloca ptr, align 8
  store ptr %0, ptr %2, align 8
  %3 = load ptr, ptr %2, align 8
  store ptr getelementptr inbounds inrange(-16, 64) ({ [10 x ptr] }, ptr @_ZTVN7glslang18TBuiltInParseablesE, i32 0, i32 0, i32 2), ptr %3, align 8
  %4 = getelementptr inbounds %"class.glslang::TBuiltInParseables", ptr %3, i32 0, i32 1
  call void @_ZNSt7__cxx1112basic_stringIcSt11char_traitsIcEN7glslang14pool_allocatorIcEEEC2Ev(ptr noundef nonnull align 8 dereferenceable(40) %4)
  %5 = getelementptr inbounds %"class.glslang::TBuiltInParseables", ptr %3, i32 0, i32 2
  %6 = getelementptr inbounds [14 x %"class.std::__cxx11::basic_string"], ptr %5, i32 0, i32 0
  %7 = getelementptr inbounds %"class.std::__cxx11::basic_string", ptr %6, i64 14
  br label %8

8:                                                ; preds = %8, %1
  %9 = phi ptr [ %6, %1 ], [ %10, %8 ]
  call void @_ZNSt7__cxx1112basic_stringIcSt11char_traitsIcEN7glslang14pool_allocatorIcEEEC2Ev(ptr noundef nonnull align 8 dereferenceable(40) %9)
  %10 = getelementptr inbounds %"class.std::__cxx11::basic_string", ptr %9, i64 1
  %11 = icmp eq ptr %10, %7
  br i1 %11, label %12, label %8

12:                                               ; preds = %8
  ret void
}

; Function Attrs: mustprogress nounwind uwtable
define void @_ZN7glslang9TBuiltInsC2Ev(ptr noundef nonnull align 8 dereferenceable(876) %0) unnamed_addr #2 align 2 {
  %2 = alloca ptr, align 8
  store ptr %0, ptr %2, align 8
  %3 = load ptr, ptr %2, align 8
  call void @_ZN7glslang18TBuiltInParseablesC2Ev(ptr noundef nonnull align 8 dereferenceable(608) %3)
  store ptr getelementptr inbounds inrange(-16, 64) ({ [10 x ptr] }, ptr @_ZTVN7glslang9TBuiltInsE, i32 0, i32 0, i32 2), ptr %3, align 8
  %4 = getelementptr inbounds %"class.glslang::TBuiltIns", ptr %3, i32 0, i32 2
  %5 = getelementptr inbounds [24 x ptr], ptr %4, i64 0, i64 1
  store ptr @.str.64, ptr %5, align 8
  %6 = getelementptr inbounds %"class.glslang::TBuiltIns", ptr %3, i32 0, i32 2
  %7 = getelementptr inbounds [24 x ptr], ptr %6, i64 0, i64 8
  store ptr @.str.65, ptr %7, align 8
  %8 = getelementptr inbounds %"class.glslang::TBuiltIns", ptr %3, i32 0, i32 2
  %9 = getelementptr inbounds [24 x ptr], ptr %8, i64 0, i64 9
  store ptr @.str.66, ptr %9, align 8
  %10 = getelementptr inbounds %"class.glslang::TBuiltIns", ptr %3, i32 0, i32 2
  %11 = getelementptr inbounds [24 x ptr], ptr %10, i64 0, i64 3
  store ptr @.str.67, ptr %11, align 8
  %12 = getelementptr inbounds %"class.glslang::TBuiltIns", ptr %3, i32 0, i32 2
  %13 = getelementptr inbounds [24 x ptr], ptr %12, i64 0, i64 4
  store ptr @.str.68, ptr %13, align 8
  %14 = getelementptr inbounds %"class.glslang::TBuiltIns", ptr %3, i32 0, i32 2
  %15 = getelementptr inbounds [24 x ptr], ptr %14, i64 0, i64 5
  store ptr @.str.69, ptr %15, align 8
  %16 = getelementptr inbounds %"class.glslang::TBuiltIns", ptr %3, i32 0, i32 2
  %17 = getelementptr inbounds [24 x ptr], ptr %16, i64 0, i64 6
  store ptr @.str.70, ptr %17, align 8
  %18 = getelementptr inbounds %"class.glslang::TBuiltIns", ptr %3, i32 0, i32 2
  %19 = getelementptr inbounds [24 x ptr], ptr %18, i64 0, i64 7
  store ptr @.str.71, ptr %19, align 8
  %20 = getelementptr inbounds %"class.glslang::TBuiltIns", ptr %3, i32 0, i32 2
  %21 = getelementptr inbounds [24 x ptr], ptr %20, i64 0, i64 10
  store ptr @.str.72, ptr %21, align 8
  %22 = getelementptr inbounds %"class.glslang::TBuiltIns", ptr %3, i32 0, i32 2
  %23 = getelementptr inbounds [24 x ptr], ptr %22, i64 0, i64 11
  store ptr @.str.73, ptr %23, align 8
  %24 = getelementptr inbounds %"class.glslang::TBuiltIns", ptr %3, i32 0, i32 1
  %25 = getelementptr inbounds [5 x ptr], ptr %24, i64 0, i64 2
  store ptr @.str.74, ptr %25, align 8
  %26 = getelementptr inbounds %"class.glslang::TBuiltIns", ptr %3, i32 0, i32 1
  %27 = getelementptr inbounds [5 x ptr], ptr %26, i64 0, i64 3
  store ptr @.str.75, ptr %27, align 8
  %28 = getelementptr inbounds %"class.glslang::TBuiltIns", ptr %3, i32 0, i32 1
  %29 = getelementptr inbounds [5 x ptr], ptr %28, i64 0, i64 4
  store ptr @.str.76, ptr %29, align 8
  %30 = getelementptr inbounds %"class.glslang::TBuiltIns", ptr %3, i32 0, i32 3
  %31 = getelementptr inbounds [9 x i32], ptr %30, i64 0, i64 2
  store i32 2, ptr %31, align 8
  %32 = getelementptr inbounds %"class.glslang::TBuiltIns", ptr %3, i32 0, i32 3
  %33 = getelementptr inbounds [9 x i32], ptr %32, i64 0, i64 3
  store i32 3, ptr %33, align 4
  %34 = getelementptr inbounds %"class.glslang::TBuiltIns", ptr %3, i32 0, i32 3
  %35 = getelementptr inbounds [9 x i32], ptr %34, i64 0, i64 4
  store i32 3, ptr %35, align 8
  %36 = getelementptr inbounds %"class.glslang::TBuiltIns", ptr %3, i32 0, i32 3
  %37 = getelementptr inbounds [9 x i32], ptr %36, i64 0, i64 1
  store i32 1, ptr %37, align 4
  %38 = getelementptr inbounds %"class.glslang::TBuiltIns", ptr %3, i32 0, i32 3
  %39 = getelementptr inbounds [9 x i32], ptr %38, i64 0, i64 5
  store i32 2, ptr %39, align 4
  %40 = getelementptr inbounds %"class.glslang::TBuiltIns", ptr %3, i32 0, i32 3
  %41 = getelementptr inbounds [9 x i32], ptr %40, i64 0, i64 6
  store i32 1, ptr %41, align 8
  %42 = getelementptr inbounds %"class.glslang::TBuiltIns", ptr %3, i32 0, i32 3
  %43 = getelementptr inbounds [9 x i32], ptr %42, i64 0, i64 7
  store i32 2, ptr %43, align 4
  %44 = getelementptr inbounds %"class.glslang::TBuiltIns", ptr %3, i32 0, i32 3
  %45 = getelementptr inbounds [9 x i32], ptr %44, i64 0, i64 8
  store i32 2, ptr %45, align 8
  ret void
}