; Function Attrs: mustprogress nounwind uwtable
define void @_ZN7glslang9TBuiltInsC2Ev(ptr noundef nonnull align 8 dereferenceable(876) initializes((0, 16)) %0) unnamed_addr #1 align 2 {
  store ptr getelementptr inbounds nuw inrange(-16, 64) (i8, ptr @_ZTVN7glslang18TBuiltInParseablesE, i64 16), ptr %0, align 8
  %2 = getelementptr inbounds nuw i8, ptr %0, i64 8
  %3 = getelementptr inbounds nuw i8, ptr %0, i64 32
  %4 = tail call noundef nonnull align 8 dereferenceable(96) ptr @_ZN7glslang22GetThreadPoolAllocatorEv() #16
  store ptr %4, ptr %2, align 8
  %5 = getelementptr inbounds nuw i8, ptr %0, i64 16
  store ptr %3, ptr %5, align 8
  %6 = getelementptr inbounds nuw i8, ptr %0, i64 24
  store i64 0, ptr %6, align 8
  store i8 0, ptr %3, align 8
  br label %7

7:                                                ; preds = %7, %1
  %.idx.i = phi i64 [ 48, %1 ], [ %.add.i, %7 ]
  %.ptr.i = getelementptr inbounds nuw i8, ptr %0, i64 %.idx.i
  %8 = getelementptr inbounds nuw i8, ptr %.ptr.i, i64 24
  %9 = tail call noundef nonnull align 8 dereferenceable(96) ptr @_ZN7glslang22GetThreadPoolAllocatorEv() #16
  store ptr %9, ptr %.ptr.i, align 8
  %10 = getelementptr inbounds nuw i8, ptr %.ptr.i, i64 8
  store ptr %8, ptr %10, align 8
  %11 = getelementptr inbounds nuw i8, ptr %.ptr.i, i64 16
  store i64 0, ptr %11, align 8
  store i8 0, ptr %8, align 8
  %.add.i = add nuw nsw i64 %.idx.i, 40
  %12 = icmp eq i64 %.add.i, 608
  br i1 %12, label %_ZN7glslang18TBuiltInParseablesC2Ev.exit, label %7

_ZN7glslang18TBuiltInParseablesC2Ev.exit:         ; preds = %7
  store ptr getelementptr inbounds nuw inrange(-16, 64) (i8, ptr @_ZTVN7glslang9TBuiltInsE, i64 16), ptr %0, align 8
  %13 = getelementptr inbounds nuw i8, ptr %0, i64 656
  store ptr @.str.64, ptr %13, align 8
  %14 = getelementptr inbounds nuw i8, ptr %0, i64 712
  store ptr @.str.65, ptr %14, align 8
  %15 = getelementptr inbounds nuw i8, ptr %0, i64 720
  store ptr @.str.66, ptr %15, align 8
  %16 = getelementptr inbounds nuw i8, ptr %0, i64 672
  store ptr @.str.67, ptr %16, align 8
  %17 = getelementptr inbounds nuw i8, ptr %0, i64 680
  store ptr @.str.68, ptr %17, align 8
  %18 = getelementptr inbounds nuw i8, ptr %0, i64 688
  store ptr @.str.69, ptr %18, align 8
  %19 = getelementptr inbounds nuw i8, ptr %0, i64 696
  store ptr @.str.70, ptr %19, align 8
  %20 = getelementptr inbounds nuw i8, ptr %0, i64 704
  store ptr @.str.71, ptr %20, align 8
  %21 = getelementptr inbounds nuw i8, ptr %0, i64 728
  store ptr @.str.72, ptr %21, align 8
  %22 = getelementptr inbounds nuw i8, ptr %0, i64 736
  store ptr @.str.73, ptr %22, align 8
  %23 = getelementptr inbounds nuw i8, ptr %0, i64 624
  store ptr @.str.74, ptr %23, align 8
  %24 = getelementptr inbounds nuw i8, ptr %0, i64 632
  store ptr @.str.75, ptr %24, align 8
  %25 = getelementptr inbounds nuw i8, ptr %0, i64 640
  store ptr @.str.76, ptr %25, align 8
  %26 = getelementptr inbounds nuw i8, ptr %0, i64 848
  store i32 2, ptr %26, align 8
  %27 = getelementptr inbounds nuw i8, ptr %0, i64 852
  store i32 3, ptr %27, align 4
  %28 = getelementptr inbounds nuw i8, ptr %0, i64 856
  store i32 3, ptr %28, align 8
  %29 = getelementptr inbounds nuw i8, ptr %0, i64 844
  store i32 1, ptr %29, align 4
  %30 = getelementptr inbounds nuw i8, ptr %0, i64 860
  store i32 2, ptr %30, align 4
  %31 = getelementptr inbounds nuw i8, ptr %0, i64 864
  store i32 1, ptr %31, align 8
  %32 = getelementptr inbounds nuw i8, ptr %0, i64 868
  store i32 2, ptr %32, align 4
  %33 = getelementptr inbounds nuw i8, ptr %0, i64 872
  store i32 2, ptr %33, align 8
  ret void
}